target datalayout = "e-m:e-p270:32:32-p271:32:32-p272:64:64-i64:64-i128:128-f80:128-n8:16:32:64-S128"
target triple = "x86_64-pc-linux-gnu"

%struct.grpc_ares_ev_driver = type { ptr, ptr, %struct.gpr_refcount, ptr, i8, ptr, %"class.std::unique_ptr", i32, %struct.grpc_timer, %struct.grpc_closure, %struct.grpc_timer, %struct.grpc_closure }
%struct.gpr_refcount = type { i64 }
%"class.std::unique_ptr" = type { %"struct.std::__uniq_ptr_data" }
%"struct.std::__uniq_ptr_data" = type { %"class.std::__uniq_ptr_impl" }
%"class.std::__uniq_ptr_impl" = type { %"class.std::tuple" }
%"class.std::tuple" = type { %"struct.std::_Tuple_impl" }
%"struct.std::_Tuple_impl" = type { %"struct.std::_Head_base.1" }
%"struct.std::_Head_base.1" = type { ptr }
%struct.grpc_timer = type { i64, i32, i8, ptr, ptr, ptr, %union.anon }
%union.anon = type { %"struct.grpc_event_engine::experimental::EventEngine::TaskHandle" }
%"struct.grpc_event_engine::experimental::EventEngine::TaskHandle" = type { [2 x i64] }
%struct.grpc_closure = type { %union.anon.2, ptr, ptr, %union.anon.3 }
%union.anon.2 = type { ptr }
%union.anon.3 = type { i64 }

; Function Attrs: mustprogress uwtable
define void @_Z46grpc_ares_ev_driver_on_queries_complete_lockedP19grpc_ares_ev_driver(ptr noundef %0) #4 {
  %2 = alloca ptr, align 8
  store ptr %0, ptr %2, align 8, !tbaa !3
  %3 = load ptr, ptr %2, align 8, !tbaa !3
  %4 = getelementptr inbounds nuw %struct.grpc_ares_ev_driver, ptr %3, i32 0, i32 4
  store i8 1, ptr %4, align 8, !tbaa !8
  %5 = load ptr, ptr %2, align 8, !tbaa !3
  %6 = getelementptr inbounds nuw %struct.grpc_ares_ev_driver, ptr %5, i32 0, i32 8
  call void @_Z17grpc_timer_cancelP10grpc_timer(ptr noundef %6)
  %7 = load ptr, ptr %2, align 8, !tbaa !3
  %8 = getelementptr inbounds nuw %struct.grpc_ares_ev_driver, ptr %7, i32 0, i32 10
  call void @_Z17grpc_timer_cancelP10grpc_timer(ptr noundef %8)
  %9 = load ptr, ptr %2, align 8, !tbaa !3
  call void @_ZL25grpc_ares_ev_driver_unrefP19grpc_ares_ev_driver(ptr noundef %9)
  ret void
}