; Function Attrs: mustprogress uwtable
define void @_Z46grpc_ares_ev_driver_on_queries_complete_lockedP19grpc_ares_ev_driver(ptr noundef initializes((32, 33)) %0) local_unnamed_addr #3 {
  %2 = getelementptr inbounds nuw i8, ptr %0, i64 32
  store i8 1, ptr %2, align 8, !tbaa !3
  %3 = getelementptr inbounds nuw i8, ptr %0, i64 64
  tail call void @_Z17grpc_timer_cancelP10grpc_timer(ptr noundef nonnull %3)
  %4 = getelementptr inbounds nuw i8, ptr %0, i64 152
  tail call void @_Z17grpc_timer_cancelP10grpc_timer(ptr noundef nonnull %4)
  tail call fastcc void @_ZL25grpc_ares_ev_driver_unrefP19grpc_ares_ev_driver(ptr noundef %0)
  ret void
}